
./veer/tempFiles/TESTV.exe:     file format elf32-littleriscv


Disassembly of section .text:

80000000 <_start>:
80000000:	70051517          	auipc	a0,0x70051
80000004:	27450513          	addi	a0,a0,628 # f0051274 <input_img>
80000008:	70040597          	auipc	a1,0x70040
8000000c:	06058593          	addi	a1,a1,96 # f0040068 <conv_out>
80000010:	70046617          	auipc	a2,0x70046
80000014:	afc60613          	addi	a2,a2,-1284 # f0045b0c <W_conv>
80000018:	70051697          	auipc	a3,0x70051
8000001c:	21468693          	addi	a3,a3,532 # f005122c <b_conv>
80000020:	205d                	jal	800000c6 <conv2d>
80000022:	70040517          	auipc	a0,0x70040
80000026:	04650513          	addi	a0,a0,70 # f0040068 <conv_out>
8000002a:	70045597          	auipc	a1,0x70045
8000002e:	83e58593          	addi	a1,a1,-1986 # f0044868 <maxpool_out>
80000032:	2aa9                	jal	8000018c <maxpool2d>
80000034:	70045517          	auipc	a0,0x70045
80000038:	83450513          	addi	a0,a0,-1996 # f0044868 <maxpool_out>
8000003c:	70046597          	auipc	a1,0x70046
80000040:	a2c58593          	addi	a1,a1,-1492 # f0045a68 <dense_out>
80000044:	70046617          	auipc	a2,0x70046
80000048:	de860613          	addi	a2,a2,-536 # f0045e2c <W_fc>
8000004c:	70051697          	auipc	a3,0x70051
80000050:	20068693          	addi	a3,a3,512 # f005124c <b_fc>
80000054:	2a75                	jal	80000210 <dense>
80000056:	70046517          	auipc	a0,0x70046
8000005a:	a1250513          	addi	a0,a0,-1518 # f0045a68 <dense_out>
8000005e:	45a9                	li	a1,10
80000060:	24a5                	jal	800002c8 <printToLogVectorized>
80000062:	70046517          	auipc	a0,0x70046
80000066:	a0650513          	addi	a0,a0,-1530 # f0045a68 <dense_out>
8000006a:	70046597          	auipc	a1,0x70046
8000006e:	a2658593          	addi	a1,a1,-1498 # f0045a90 <softmax_out>
80000072:	2add                	jal	80000268 <softmax>
80000074:	70046297          	auipc	t0,0x70046
80000078:	a1c28293          	addi	t0,t0,-1508 # f0045a90 <softmax_out>
8000007c:	4329                	li	t1,10
8000007e:	4381                	li	t2,0
80000080:	0002a007          	flw	ft0,0(t0)
80000084:	4e05                	li	t3,1
80000086:	70046417          	auipc	s0,0x70046
8000008a:	a3240413          	addi	s0,s0,-1486 # f0045ab8 <result>

8000008e <argmax_loop>:
8000008e:	026e5163          	bge	t3,t1,800000b0 <print_result>
80000092:	002e1e93          	slli	t4,t3,0x2
80000096:	01d28f33          	add	t5,t0,t4
8000009a:	000f2087          	flw	ft1,0(t5)
8000009e:	a0101fd3          	flt.s	t6,ft0,ft1
800000a2:	000f8563          	beqz	t6,800000ac <next_elem>
800000a6:	20108053          	fmv.s	ft0,ft1
800000aa:	83f2                	mv	t2,t3

800000ac <next_elem>:
800000ac:	0e05                	addi	t3,t3,1
800000ae:	b7c5                	j	8000008e <argmax_loop>

800000b0 <print_result>:
800000b0:	00742023          	sw	t2,0(s0)
800000b4:	70046517          	auipc	a0,0x70046
800000b8:	a0450513          	addi	a0,a0,-1532 # f0045ab8 <result>
800000bc:	70040597          	auipc	a1,0x70040
800000c0:	fa85a583          	lw	a1,-88(a1) # f0040064 <size>
800000c4:	ac25                	j	800002fc <_finish>

800000c6 <conv2d>:
800000c6:	4401                	li	s0,0
800000c8:	4b21                	li	s6,8

800000ca <filter_loop>:
800000ca:	0d645063          	bge	s0,s6,8000018a <end_conv>
800000ce:	00241293          	slli	t0,s0,0x2
800000d2:	00568333          	add	t1,a3,t0
800000d6:	00032107          	flw	ft2,0(t1)
800000da:	4481                	li	s1,0
800000dc:	4be1                	li	s7,24

800000de <i_loop>:
800000de:	0b74d463          	bge	s1,s7,80000186 <next_filter>
800000e2:	4901                	li	s2,0

800000e4 <j_loop>:
800000e4:	09795f63          	bge	s2,s7,80000182 <next_i>
800000e8:	70040397          	auipc	t2,0x70040
800000ec:	f1838393          	addi	t2,t2,-232 # f0040000 <temp_patch>
800000f0:	4981                	li	s3,0
800000f2:	4c15                	li	s8,5

800000f4 <patch_loop>:
800000f4:	0389df63          	bge	s3,s8,80000132 <load_weights>
800000f8:	4a01                	li	s4,0

800000fa <patch_inner>:
800000fa:	038a5a63          	bge	s4,s8,8000012e <next_ki>
800000fe:	4df1                	li	s11,28
80000100:	01348e33          	add	t3,s1,s3
80000104:	03be0e33          	mul	t3,t3,s11
80000108:	01490eb3          	add	t4,s2,s4
8000010c:	9e76                	add	t3,t3,t4
8000010e:	0e0a                	slli	t3,t3,0x2
80000110:	01c50f33          	add	t5,a0,t3
80000114:	000f2007          	flw	ft0,0(t5)
80000118:	4d15                	li	s10,5
8000011a:	03a98fb3          	mul	t6,s3,s10
8000011e:	9fd2                	add	t6,t6,s4
80000120:	0f8a                	slli	t6,t6,0x2
80000122:	01f38cb3          	add	s9,t2,t6
80000126:	000ca027          	fsw	ft0,0(s9)
8000012a:	0a05                	addi	s4,s4,1
8000012c:	b7f9                	j	800000fa <patch_inner>

8000012e <next_ki>:
8000012e:	0985                	addi	s3,s3,1
80000130:	b7d1                	j	800000f4 <patch_loop>

80000132 <load_weights>:
80000132:	010072d7          	vsetvli	t0,zero,e32,m1,tu,mu
80000136:	0203e087          	vle32.v	v1,(t2)
8000013a:	4365                	li	t1,25
8000013c:	02640333          	mul	t1,s0,t1
80000140:	030a                	slli	t1,t1,0x2
80000142:	006603b3          	add	t2,a2,t1
80000146:	0203e107          	vle32.v	v2,(t2)
8000014a:	42e1                	li	t0,24
8000014c:	02540333          	mul	t1,s0,t0
80000150:	9326                	add	t1,t1,s1
80000152:	02530333          	mul	t1,t1,t0
80000156:	934a                	add	t1,t1,s2
80000158:	030a                	slli	t1,t1,0x2
8000015a:	006583b3          	add	t2,a1,t1
8000015e:	921111d7          	vfmul.vv	v3,v1,v2
80000162:	f00000d3          	fmv.w.x	ft1,zero
80000166:	5e00d257          	vfmv.v.f	v4,ft1
8000016a:	06321257          	vfredusum.vs	v4,v3,v4
8000016e:	42401057          	vfmv.f.s	ft0,v4
80000172:	00207053          	fadd.s	ft0,ft0,ft2
80000176:	28101053          	fmax.s	ft0,ft0,ft1
8000017a:	0003a027          	fsw	ft0,0(t2)
8000017e:	0905                	addi	s2,s2,1
80000180:	b795                	j	800000e4 <j_loop>

80000182 <next_i>:
80000182:	0485                	addi	s1,s1,1
80000184:	bfa9                	j	800000de <i_loop>

80000186 <next_filter>:
80000186:	0405                	addi	s0,s0,1
80000188:	b789                	j	800000ca <filter_loop>

8000018a <end_conv>:
8000018a:	8082                	ret

8000018c <maxpool2d>:
8000018c:	4281                	li	t0,0
8000018e:	4421                	li	s0,8

80000190 <mp_filter>:
80000190:	0682df63          	bge	t0,s0,8000020e <mp_done>
80000194:	4301                	li	t1,0
80000196:	44b1                	li	s1,12

80000198 <mp_i>:
80000198:	06935963          	bge	t1,s1,8000020a <next_f>
8000019c:	4381                	li	t2,0

8000019e <mp_j>:
8000019e:	0693d463          	bge	t2,s1,80000206 <next_mi>
800001a2:	00131e13          	slli	t3,t1,0x1
800001a6:	00139e93          	slli	t4,t2,0x1
800001aa:	4f61                	li	t5,24
800001ac:	03e28fb3          	mul	t6,t0,t5
800001b0:	03ef8fb3          	mul	t6,t6,t5
800001b4:	00131e13          	slli	t3,t1,0x1
800001b8:	03ee0eb3          	mul	t4,t3,t5
800001bc:	00139e13          	slli	t3,t2,0x1
800001c0:	9ff6                	add	t6,t6,t4
800001c2:	9ff2                	add	t6,t6,t3
800001c4:	0f8a                	slli	t6,t6,0x2
800001c6:	01f50933          	add	s2,a0,t6
800001ca:	00092307          	flw	ft6,0(s2)
800001ce:	00492087          	flw	ft1,4(s2)
800001d2:	28131353          	fmax.s	ft6,ft6,ft1
800001d6:	06090993          	addi	s3,s2,96
800001da:	0009a107          	flw	ft2,0(s3)
800001de:	28231353          	fmax.s	ft6,ft6,ft2
800001e2:	0049a187          	flw	ft3,4(s3)
800001e6:	28331353          	fmax.s	ft6,ft6,ft3
800001ea:	4a31                	li	s4,12
800001ec:	03428ab3          	mul	s5,t0,s4
800001f0:	9a9a                	add	s5,s5,t1
800001f2:	034a8ab3          	mul	s5,s5,s4
800001f6:	9a9e                	add	s5,s5,t2
800001f8:	0a8a                	slli	s5,s5,0x2
800001fa:	01558b33          	add	s6,a1,s5
800001fe:	006b2027          	fsw	ft6,0(s6)
80000202:	0385                	addi	t2,t2,1
80000204:	bf69                	j	8000019e <mp_j>

80000206 <next_mi>:
80000206:	0305                	addi	t1,t1,1
80000208:	bf41                	j	80000198 <mp_i>

8000020a <next_f>:
8000020a:	0285                	addi	t0,t0,1
8000020c:	b751                	j	80000190 <mp_filter>

8000020e <mp_done>:
8000020e:	8082                	ret

80000210 <dense>:
80000210:	4281                	li	t0,0
80000212:	4429                	li	s0,10
80000214:	f0000053          	fmv.w.x	ft0,zero

80000218 <dense_loop>:
80000218:	0482d763          	bge	t0,s0,80000266 <dense_done>
8000021c:	f00000d3          	fmv.w.x	ft1,zero
80000220:	832a                	mv	t1,a0
80000222:	48000393          	li	t2,1152
80000226:	02728e33          	mul	t3,t0,t2
8000022a:	0e0a                	slli	t3,t3,0x2
8000022c:	01c60eb3          	add	t4,a2,t3
80000230:	4f01                	li	t5,0

80000232 <inner_loop>:
80000232:	007f5c63          	bge	t5,t2,8000024a <end_inner>
80000236:	00032107          	flw	ft2,0(t1)
8000023a:	000ea187          	flw	ft3,0(t4)
8000023e:	083170c3          	fmadd.s	ft1,ft2,ft3,ft1
80000242:	0311                	addi	t1,t1,4
80000244:	0e91                	addi	t4,t4,4
80000246:	0f05                	addi	t5,t5,1
80000248:	b7ed                	j	80000232 <inner_loop>

8000024a <end_inner>:
8000024a:	00229f93          	slli	t6,t0,0x2
8000024e:	9fb6                	add	t6,t6,a3
80000250:	000fa207          	flw	ft4,0(t6)
80000254:	0040f2d3          	fadd.s	ft5,ft1,ft4
80000258:	00229f93          	slli	t6,t0,0x2
8000025c:	9fae                	add	t6,t6,a1
8000025e:	005fa027          	fsw	ft5,0(t6)
80000262:	0285                	addi	t0,t0,1
80000264:	bf55                	j	80000218 <dense_loop>

80000266 <dense_done>:
80000266:	8082                	ret

80000268 <softmax>:
80000268:	4629                	li	a2,10
8000026a:	010672d7          	vsetvli	t0,a2,e32,m1,tu,mu
8000026e:	02056087          	vle32.v	v1,(a0)
80000272:	92109157          	vfmul.vv	v2,v1,v1
80000276:	922091d7          	vfmul.vv	v3,v2,v1
8000027a:	3f000337          	lui	t1,0x3f000
8000027e:	f00300d3          	fmv.w.x	ft1,t1
80000282:	9220d157          	vfmul.vf	v2,v2,ft1
80000286:	3e2ab3b7          	lui	t2,0x3e2ab
8000028a:	aab38393          	addi	t2,t2,-1365 # 3e2aaaab <_start-0x41d55555>
8000028e:	f0038153          	fmv.w.x	ft2,t2
80000292:	923151d7          	vfmul.vf	v3,v3,ft2
80000296:	02111257          	vfadd.vv	v4,v1,v2
8000029a:	02419257          	vfadd.vv	v4,v4,v3
8000029e:	3f8002b7          	lui	t0,0x3f800
800002a2:	f00281d3          	fmv.w.x	ft3,t0
800002a6:	5e01d2d7          	vfmv.v.f	v5,ft3
800002aa:	02429357          	vfadd.vv	v6,v4,v5
800002ae:	f0000053          	fmv.w.x	ft0,zero
800002b2:	5e0053d7          	vfmv.v.f	v7,ft0
800002b6:	06639457          	vfredusum.vs	v8,v6,v7
800002ba:	428010d7          	vfmv.f.s	ft1,v8
800002be:	8260d4d7          	vfdiv.vf	v9,v6,ft1
800002c2:	0205e4a7          	vse32.v	v9,(a1)
800002c6:	8082                	ret

800002c8 <printToLogVectorized>:
800002c8:	1171                	addi	sp,sp,-4
800002ca:	c02a                	sw	a0,0(sp)
800002cc:	12300293          	li	t0,291
800002d0:	45600293          	li	t0,1110
800002d4:	85ae                	mv	a1,a1
800002d6:	4281                	li	t0,0

800002d8 <printloop>:
800002d8:	0105fe57          	vsetvli	t3,a1,e32,m1,tu,mu
800002dc:	002e1e93          	slli	t4,t3,0x2
800002e0:	02056087          	vle32.v	v1,(a0)
800002e4:	9576                	add	a0,a0,t4
800002e6:	92f2                	add	t0,t0,t3
800002e8:	00b2d363          	bge	t0,a1,800002ee <endPrintLoop>
800002ec:	b7f5                	j	800002d8 <printloop>

800002ee <endPrintLoop>:
800002ee:	12300293          	li	t0,291
800002f2:	45600293          	li	t0,1110
800002f6:	4502                	lw	a0,0(sp)
800002f8:	0111                	addi	sp,sp,4
800002fa:	8082                	ret

800002fc <_finish>:
800002fc:	d05801b7          	lui	gp,0xd0580
80000300:	0ff00293          	li	t0,255
80000304:	00518023          	sb	t0,0(gp) # d0580000 <_end+0x5057fc2c>
80000308:	fe000ae3          	beqz	zero,800002fc <_finish>
8000030c:	0001                	nop
8000030e:	0001                	nop
80000310:	0001                	nop
80000312:	0001                	nop
80000314:	0001                	nop
80000316:	0001                	nop
80000318:	0001                	nop
8000031a:	0001                	nop
8000031c:	0001                	nop
8000031e:	0001                	nop
80000320:	0001                	nop
80000322:	0001                	nop
80000324:	0001                	nop
80000326:	0001                	nop
80000328:	0001                	nop
8000032a:	0001                	nop
8000032c:	0001                	nop
8000032e:	0001                	nop
80000330:	0001                	nop
80000332:	0001                	nop
80000334:	0001                	nop
80000336:	0001                	nop
80000338:	0001                	nop
8000033a:	0001                	nop
8000033c:	0001                	nop
8000033e:	0001                	nop
80000340:	0001                	nop
80000342:	0001                	nop
80000344:	0001                	nop
80000346:	0001                	nop
80000348:	0001                	nop
8000034a:	0001                	nop
8000034c:	0001                	nop
8000034e:	0001                	nop
80000350:	0001                	nop
80000352:	0001                	nop
80000354:	0001                	nop
80000356:	0001                	nop
80000358:	0001                	nop
8000035a:	0001                	nop
8000035c:	0001                	nop
8000035e:	0001                	nop
80000360:	0001                	nop
80000362:	0001                	nop
80000364:	0001                	nop
80000366:	0001                	nop
80000368:	0001                	nop
8000036a:	0001                	nop
8000036c:	0001                	nop
8000036e:	0001                	nop
80000370:	0001                	nop
80000372:	0001                	nop
80000374:	0001                	nop
80000376:	0001                	nop
80000378:	0001                	nop
8000037a:	0001                	nop
8000037c:	0001                	nop
8000037e:	0001                	nop
80000380:	0001                	nop
80000382:	0001                	nop
80000384:	0001                	nop
80000386:	0001                	nop
80000388:	0001                	nop
8000038a:	0001                	nop
8000038c:	0001                	nop
8000038e:	0001                	nop
80000390:	0001                	nop
80000392:	0001                	nop
80000394:	0001                	nop
80000396:	0001                	nop
80000398:	0001                	nop
8000039a:	0001                	nop
8000039c:	0001                	nop
8000039e:	0001                	nop
800003a0:	0001                	nop
800003a2:	0001                	nop
800003a4:	0001                	nop
800003a6:	0001                	nop
800003a8:	0001                	nop
800003aa:	0001                	nop
800003ac:	0001                	nop
800003ae:	0001                	nop
800003b0:	0001                	nop
800003b2:	0001                	nop
800003b4:	0001                	nop
800003b6:	0001                	nop
800003b8:	0001                	nop
800003ba:	0001                	nop
800003bc:	0001                	nop
800003be:	0001                	nop
800003c0:	0001                	nop
800003c2:	0001                	nop
800003c4:	0001                	nop
800003c6:	0001                	nop
800003c8:	0001                	nop
800003ca:	0001                	nop
800003cc:	0001                	nop
800003ce:	0001                	nop
800003d0:	0001                	nop
800003d2:	0001                	nop
